target datalayout = "e-m:e-p270:32:32-p271:32:32-p272:64:64-i64:64-i128:128-f80:128-n8:16:32:64-S128"
target triple = "x86_64-pc-linux-gnu"

%struct._zend_array = type { %struct._zend_refcounted_h, %union.anon.0, i32, %union.anon.1, i32, i32, i32, i32, i64, ptr }
%struct._zend_refcounted_h = type { i32, %union.anon }
%union.anon = type { i32 }
%union.anon.0 = type { i32 }
%union.anon.1 = type { ptr }
%struct._zval_struct = type { %union._zend_value, %union.anon.3, %union.anon.6 }
%union._zend_value = type { i64 }
%union.anon.3 = type { i32 }
%union.anon.6 = type { i32 }
%struct._Bucket = type { %struct._zval_struct, i64, ptr }
%struct._zend_hash_key = type { i64, ptr }

; Function Attrs: nounwind uwtable
define internal zeroext i1 @zend_hash_replace_checker_wrapper(ptr noundef %0, ptr noundef %1, i64 noundef %2, ptr noundef %3, ptr noundef %4, ptr noundef %5) #0 {
  %7 = alloca ptr, align 8
  %8 = alloca ptr, align 8
  %9 = alloca i64, align 8
  %10 = alloca ptr, align 8
  %11 = alloca ptr, align 8
  %12 = alloca ptr, align 8
  %13 = alloca %struct._zend_hash_key, align 8
  store ptr %0, ptr %7, align 8
  store ptr %1, ptr %8, align 8
  store i64 %2, ptr %9, align 8
  store ptr %3, ptr %10, align 8
  store ptr %4, ptr %11, align 8
  store ptr %5, ptr %12, align 8
  %14 = load i64, ptr %9, align 8
  %15 = getelementptr inbounds %struct._zend_hash_key, ptr %13, i32 0, i32 0
  store i64 %14, ptr %15, align 8
  %16 = load ptr, ptr %10, align 8
  %17 = getelementptr inbounds %struct._zend_hash_key, ptr %13, i32 0, i32 1
  store ptr %16, ptr %17, align 8
  %18 = load ptr, ptr %12, align 8
  %19 = load ptr, ptr %7, align 8
  %20 = load ptr, ptr %8, align 8
  %21 = load ptr, ptr %11, align 8
  %22 = call zeroext i1 %18(ptr noundef %19, ptr noundef %20, ptr noundef %13, ptr noundef %21)
  ret i1 %22
}

; Function Attrs: nounwind uwtable
define void @zend_hash_merge_ex(ptr noundef %0, ptr noundef %1, ptr noundef %2, ptr noundef %3, ptr noundef %4) #0 {
  %6 = alloca ptr, align 8
  %7 = alloca ptr, align 8
  %8 = alloca ptr, align 8
  %9 = alloca ptr, align 8
  %10 = alloca ptr, align 8
  %11 = alloca ptr, align 8
  %12 = alloca i32, align 4
  %13 = alloca ptr, align 8
  %14 = alloca ptr, align 8
  store ptr %0, ptr %7, align 8
  store ptr %1, ptr %8, align 8
  store ptr %2, ptr %9, align 8
  store ptr %3, ptr %10, align 8
  store ptr %4, ptr %11, align 8
  %15 = load ptr, ptr %8, align 8
  %16 = getelementptr inbounds %struct._zend_array, ptr %15, i32 0, i32 1
  %17 = load i32, ptr %16, align 8
  %18 = and i32 %17, 4
  %19 = icmp ne i32 %18, 0
  %20 = xor i1 %19, true
  call void @llvm.assume(i1 %20)
  store i32 0, ptr %12, align 4
  br label %21

21:                                               ; preds = %75, %5
  %22 = load i32, ptr %12, align 4
  %23 = load ptr, ptr %8, align 8
  %24 = getelementptr inbounds %struct._zend_array, ptr %23, i32 0, i32 4
  %25 = load i32, ptr %24, align 8
  %26 = icmp ult i32 %22, %25
  br i1 %26, label %27, label %78

27:                                               ; preds = %21
  %28 = load ptr, ptr %8, align 8
  %29 = getelementptr inbounds %struct._zend_array, ptr %28, i32 0, i32 3
  %30 = load ptr, ptr %29, align 8
  %31 = load i32, ptr %12, align 4
  %32 = zext i32 %31 to i64
  %33 = getelementptr inbounds %struct._Bucket, ptr %30, i64 %32
  store ptr %33, ptr %13, align 8
  %34 = load ptr, ptr %13, align 8
  %35 = getelementptr inbounds %struct._Bucket, ptr %34, i32 0, i32 0
  store ptr %35, ptr %6, align 8
  %36 = load ptr, ptr %6, align 8
  %37 = getelementptr inbounds %struct._zval_struct, ptr %36, i32 0, i32 1
  %38 = load i8, ptr %37, align 8
  %39 = zext i8 %38 to i32
  %40 = icmp eq i32 %39, 0
  %41 = xor i1 %40, true
  %42 = xor i1 %41, true
  %43 = zext i1 %42 to i32
  %44 = sext i32 %43 to i64
  %45 = icmp ne i64 %44, 0
  br i1 %45, label %46, label %47

46:                                               ; preds = %27
  br label %75

47:                                               ; preds = %27
  %48 = load ptr, ptr %7, align 8
  %49 = load ptr, ptr %13, align 8
  %50 = getelementptr inbounds %struct._Bucket, ptr %49, i32 0, i32 0
  %51 = load ptr, ptr %13, align 8
  %52 = getelementptr inbounds %struct._Bucket, ptr %51, i32 0, i32 1
  %53 = load i64, ptr %52, align 8
  %54 = load ptr, ptr %13, align 8
  %55 = getelementptr inbounds %struct._Bucket, ptr %54, i32 0, i32 2
  %56 = load ptr, ptr %55, align 8
  %57 = load ptr, ptr %11, align 8
  %58 = load ptr, ptr %10, align 8
  %59 = call zeroext i1 @zend_hash_replace_checker_wrapper(ptr noundef %48, ptr noundef %50, i64 noundef %53, ptr noundef %56, ptr noundef %57, ptr noundef %58)
  br i1 %59, label %60, label %74

60:                                               ; preds = %47
  %61 = load ptr, ptr %7, align 8
  %62 = load ptr, ptr %13, align 8
  %63 = getelementptr inbounds %struct._Bucket, ptr %62, i32 0, i32 2
  %64 = load ptr, ptr %63, align 8
  %65 = load ptr, ptr %13, align 8
  %66 = getelementptr inbounds %struct._Bucket, ptr %65, i32 0, i32 0
  %67 = call ptr @zend_hash_update(ptr noundef %61, ptr noundef %64, ptr noundef %66)
  store ptr %67, ptr %14, align 8
  %68 = load ptr, ptr %9, align 8
  %69 = icmp ne ptr %68, null
  br i1 %69, label %70, label %73

70:                                               ; preds = %60
  %71 = load ptr, ptr %9, align 8
  %72 = load ptr, ptr %14, align 8
  call void %71(ptr noundef %72)
  br label %73

73:                                               ; preds = %70, %60
  br label %74

74:                                               ; preds = %73, %47
  br label %75

75:                                               ; preds = %74, %46
  %76 = load i32, ptr %12, align 4
  %77 = add i32 %76, 1
  store i32 %77, ptr %12, align 4
  br label %21

78:                                               ; preds = %21
  ret void
}