; Function Attrs: nounwind uwtable
define void @zend_hash_merge_ex(ptr noundef %0, ptr nocapture noundef readonly %1, ptr noundef readonly %2, ptr nocapture noundef readonly %3, ptr noundef %4) local_unnamed_addr #0 {
  %6 = alloca %struct._zend_hash_key, align 8
  %7 = getelementptr inbounds i8, ptr %1, i64 8
  %8 = load i32, ptr %7, align 8
  %9 = and i32 %8, 4
  %.not = icmp eq i32 %9, 0
  tail call void @llvm.assume(i1 %.not)
  %10 = getelementptr inbounds i8, ptr %1, i64 24
  %11 = load i32, ptr %10, align 8
  %.not22 = icmp eq i32 %11, 0
  br i1 %.not22, label %._crit_edge, label %.lr.ph

.lr.ph:                                           ; preds = %5
  %12 = getelementptr inbounds i8, ptr %1, i64 16
  %13 = getelementptr inbounds i8, ptr %6, i64 8
  %.not20 = icmp eq ptr %2, null
  br i1 %.not20, label %.lr.ph.split.us, label %.lr.ph.split

.lr.ph.split.us:                                  ; preds = %.lr.ph, %28
  %indvars.iv25 = phi i64 [ %indvars.iv.next26, %28 ], [ 0, %.lr.ph ]
  %14 = load ptr, ptr %12, align 8
  %15 = getelementptr inbounds %struct._Bucket, ptr %14, i64 %indvars.iv25
  %16 = getelementptr inbounds i8, ptr %15, i64 8
  %17 = load i8, ptr %16, align 8
  %18 = icmp eq i8 %17, 0
  br i1 %18, label %28, label %19

19:                                               ; preds = %.lr.ph.split.us
  %20 = getelementptr inbounds i8, ptr %15, i64 16
  %21 = load i64, ptr %20, align 8
  %22 = getelementptr inbounds i8, ptr %15, i64 24
  %23 = load ptr, ptr %22, align 8
  call void @llvm.lifetime.start.p0(i64 16, ptr nonnull %6)
  store i64 %21, ptr %6, align 8
  store ptr %23, ptr %13, align 8
  %24 = call zeroext i1 %3(ptr noundef %0, ptr noundef nonnull %15, ptr noundef nonnull %6, ptr noundef %4) #27
  call void @llvm.lifetime.end.p0(i64 16, ptr nonnull %6)
  br i1 %24, label %25, label %28

25:                                               ; preds = %19
  %26 = load ptr, ptr %22, align 8
  %27 = call ptr @zend_hash_update(ptr noundef %0, ptr noundef %26, ptr noundef nonnull %15)
  br label %28

28:                                               ; preds = %25, %19, %.lr.ph.split.us
  %indvars.iv.next26 = add nuw nsw i64 %indvars.iv25, 1
  %29 = load i32, ptr %10, align 8
  %30 = zext i32 %29 to i64
  %31 = icmp ult i64 %indvars.iv.next26, %30
  br i1 %31, label %.lr.ph.split.us, label %._crit_edge

.lr.ph.split:                                     ; preds = %.lr.ph, %46
  %indvars.iv = phi i64 [ %indvars.iv.next, %46 ], [ 0, %.lr.ph ]
  %32 = load ptr, ptr %12, align 8
  %33 = getelementptr inbounds %struct._Bucket, ptr %32, i64 %indvars.iv
  %34 = getelementptr inbounds i8, ptr %33, i64 8
  %35 = load i8, ptr %34, align 8
  %36 = icmp eq i8 %35, 0
  br i1 %36, label %46, label %37

37:                                               ; preds = %.lr.ph.split
  %38 = getelementptr inbounds i8, ptr %33, i64 16
  %39 = load i64, ptr %38, align 8
  %40 = getelementptr inbounds i8, ptr %33, i64 24
  %41 = load ptr, ptr %40, align 8
  call void @llvm.lifetime.start.p0(i64 16, ptr nonnull %6)
  store i64 %39, ptr %6, align 8
  store ptr %41, ptr %13, align 8
  %42 = call zeroext i1 %3(ptr noundef %0, ptr noundef nonnull %33, ptr noundef nonnull %6, ptr noundef %4) #27
  call void @llvm.lifetime.end.p0(i64 16, ptr nonnull %6)
  br i1 %42, label %43, label %46

43:                                               ; preds = %37
  %44 = load ptr, ptr %40, align 8
  %45 = call ptr @zend_hash_update(ptr noundef %0, ptr noundef %44, ptr noundef nonnull %33)
  call void %2(ptr noundef %45) #27
  br label %46

46:                                               ; preds = %37, %43, %.lr.ph.split
  %indvars.iv.next = add nuw nsw i64 %indvars.iv, 1
  %47 = load i32, ptr %10, align 8
  %48 = zext i32 %47 to i64
  %49 = icmp ult i64 %indvars.iv.next, %48
  br i1 %49, label %.lr.ph.split, label %._crit_edge

._crit_edge:                                      ; preds = %46, %28, %5
  ret void
}